target datalayout = "e-m:e-p270:32:32-p271:32:32-p272:64:64-i64:64-i128:128-f80:128-n8:16:32:64-S128"
target triple = "x86_64-pc-linux-gnu"

%struct.SHA256_CTX = type { [64 x i8], i32, i64, [8 x i32] }
%struct.user = type { ptr, i32, ptr, ptr, ptr }
%struct.listNode = type { ptr, ptr, ptr }
%struct.listIter = type { ptr, i32 }
%struct.sdshdr8 = type { i8, i8, i8, [0 x i8] }
%struct.sdshdr16 = type <{ i16, i16, i8, [0 x i8] }>
%struct.sdshdr32 = type <{ i32, i32, i8, [0 x i8] }>
%struct.sdshdr64 = type <{ i64, i64, i8, [0 x i8] }>
%struct.redisObject = type { i32, i32, ptr }

@.str.31 = private unnamed_addr constant [17 x i8] c"0123456789abcdef\00", align 1
@Users = dso_local global ptr null, align 8

; Function Attrs: nounwind uwtable
define dso_local i32 @time_independent_strcmp(ptr noundef %0, ptr noundef %1, i32 noundef %2) #0 {
  %4 = alloca ptr, align 8
  %5 = alloca ptr, align 8
  %6 = alloca i32, align 4
  %7 = alloca i32, align 4
  %8 = alloca i32, align 4
  store ptr %0, ptr %4, align 8, !tbaa !5
  store ptr %1, ptr %5, align 8, !tbaa !5
  store i32 %2, ptr %6, align 4, !tbaa !17
  call void @llvm.lifetime.start.p0(i64 4, ptr %7) #14
  store i32 0, ptr %7, align 4, !tbaa !17
  call void @llvm.lifetime.start.p0(i64 4, ptr %8) #14
  store i32 0, ptr %8, align 4, !tbaa !17
  br label %9

9:                                                ; preds = %30, %3
  %10 = load i32, ptr %8, align 4, !tbaa !17
  %11 = load i32, ptr %6, align 4, !tbaa !17
  %12 = icmp slt i32 %10, %11
  br i1 %12, label %14, label %13

13:                                               ; preds = %9
  call void @llvm.lifetime.end.p0(i64 4, ptr %8) #14
  br label %33

14:                                               ; preds = %9
  %15 = load ptr, ptr %4, align 8, !tbaa !5
  %16 = load i32, ptr %8, align 4, !tbaa !17
  %17 = sext i32 %16 to i64
  %18 = getelementptr inbounds i8, ptr %15, i64 %17
  %19 = load i8, ptr %18, align 1, !tbaa !22
  %20 = sext i8 %19 to i32
  %21 = load ptr, ptr %5, align 8, !tbaa !5
  %22 = load i32, ptr %8, align 4, !tbaa !17
  %23 = sext i32 %22 to i64
  %24 = getelementptr inbounds i8, ptr %21, i64 %23
  %25 = load i8, ptr %24, align 1, !tbaa !22
  %26 = sext i8 %25 to i32
  %27 = xor i32 %20, %26
  %28 = load i32, ptr %7, align 4, !tbaa !17
  %29 = or i32 %28, %27
  store i32 %29, ptr %7, align 4, !tbaa !17
  br label %30

30:                                               ; preds = %14
  %31 = load i32, ptr %8, align 4, !tbaa !17
  %32 = add nsw i32 %31, 1
  store i32 %32, ptr %8, align 4, !tbaa !17
  br label %9, !llvm.loop !23

33:                                               ; preds = %13
  %34 = load i32, ptr %7, align 4, !tbaa !17
  call void @llvm.lifetime.end.p0(i64 4, ptr %7) #14
  ret i32 %34
}

; Function Attrs: nounwind uwtable
define dso_local ptr @ACLHashPassword(ptr noundef %0, i64 noundef %1) #0 {
  %3 = alloca ptr, align 8
  %4 = alloca i64, align 8
  %5 = alloca %struct.SHA256_CTX, align 8
  %6 = alloca [32 x i8], align 16
  %7 = alloca [64 x i8], align 16
  %8 = alloca ptr, align 8
  %9 = alloca i32, align 4
  store ptr %0, ptr %3, align 8, !tbaa !5
  store i64 %1, ptr %4, align 8, !tbaa !10
  call void @llvm.lifetime.start.p0(i64 112, ptr %5) #14
  call void @llvm.lifetime.start.p0(i64 32, ptr %6) #14
  call void @llvm.lifetime.start.p0(i64 64, ptr %7) #14
  call void @llvm.lifetime.start.p0(i64 8, ptr %8) #14
  store ptr @.str.31, ptr %8, align 8, !tbaa !5
  call void @sha256_init(ptr noundef %5)
  %10 = load ptr, ptr %3, align 8, !tbaa !5
  %11 = load i64, ptr %4, align 8, !tbaa !10
  call void @sha256_update(ptr noundef %5, ptr noundef %10, i64 noundef %11)
  %12 = getelementptr inbounds [32 x i8], ptr %6, i64 0, i64 0
  call void @sha256_final(ptr noundef %5, ptr noundef %12)
  call void @llvm.lifetime.start.p0(i64 4, ptr %9) #14
  store i32 0, ptr %9, align 4, !tbaa !17
  br label %13

13:                                               ; preds = %48, %2
  %14 = load i32, ptr %9, align 4, !tbaa !17
  %15 = icmp slt i32 %14, 32
  br i1 %15, label %17, label %16

16:                                               ; preds = %13
  call void @llvm.lifetime.end.p0(i64 4, ptr %9) #14
  br label %51

17:                                               ; preds = %13
  %18 = load ptr, ptr %8, align 8, !tbaa !5
  %19 = load i32, ptr %9, align 4, !tbaa !17
  %20 = sext i32 %19 to i64
  %21 = getelementptr inbounds [32 x i8], ptr %6, i64 0, i64 %20
  %22 = load i8, ptr %21, align 1, !tbaa !22
  %23 = zext i8 %22 to i32
  %24 = and i32 %23, 240
  %25 = ashr i32 %24, 4
  %26 = sext i32 %25 to i64
  %27 = getelementptr inbounds i8, ptr %18, i64 %26
  %28 = load i8, ptr %27, align 1, !tbaa !22
  %29 = load i32, ptr %9, align 4, !tbaa !17
  %30 = mul nsw i32 %29, 2
  %31 = sext i32 %30 to i64
  %32 = getelementptr inbounds [64 x i8], ptr %7, i64 0, i64 %31
  store i8 %28, ptr %32, align 1, !tbaa !22
  %33 = load ptr, ptr %8, align 8, !tbaa !5
  %34 = load i32, ptr %9, align 4, !tbaa !17
  %35 = sext i32 %34 to i64
  %36 = getelementptr inbounds [32 x i8], ptr %6, i64 0, i64 %35
  %37 = load i8, ptr %36, align 1, !tbaa !22
  %38 = zext i8 %37 to i32
  %39 = and i32 %38, 15
  %40 = sext i32 %39 to i64
  %41 = getelementptr inbounds i8, ptr %33, i64 %40
  %42 = load i8, ptr %41, align 1, !tbaa !22
  %43 = load i32, ptr %9, align 4, !tbaa !17
  %44 = mul nsw i32 %43, 2
  %45 = add nsw i32 %44, 1
  %46 = sext i32 %45 to i64
  %47 = getelementptr inbounds [64 x i8], ptr %7, i64 0, i64 %46
  store i8 %42, ptr %47, align 1, !tbaa !22
  br label %48

48:                                               ; preds = %17
  %49 = load i32, ptr %9, align 4, !tbaa !17
  %50 = add nsw i32 %49, 1
  store i32 %50, ptr %9, align 4, !tbaa !17
  br label %13, !llvm.loop !24

51:                                               ; preds = %16
  %52 = getelementptr inbounds [64 x i8], ptr %7, i64 0, i64 0
  %53 = call ptr @sdsnewlen(ptr noundef %52, i64 noundef 64)
  call void @llvm.lifetime.end.p0(i64 8, ptr %8) #14
  call void @llvm.lifetime.end.p0(i64 64, ptr %7) #14
  call void @llvm.lifetime.end.p0(i64 32, ptr %6) #14
  call void @llvm.lifetime.end.p0(i64 112, ptr %5) #14
  ret ptr %53
}

; Function Attrs: nounwind uwtable
define dso_local ptr @ACLGetUserByName(ptr noundef %0, i64 noundef %1) #0 {
  %3 = alloca ptr, align 8
  %4 = alloca i64, align 8
  %5 = alloca ptr, align 8
  store ptr %0, ptr %3, align 8, !tbaa !5
  store i64 %1, ptr %4, align 8, !tbaa !10
  call void @llvm.lifetime.start.p0(i64 8, ptr %5) #14
  store ptr null, ptr %5, align 8, !tbaa !32
  %6 = load ptr, ptr @Users, align 8, !tbaa !88
  %7 = load ptr, ptr %3, align 8, !tbaa !5
  %8 = load i64, ptr %4, align 8, !tbaa !10
  %9 = call i32 @raxFind(ptr noundef %6, ptr noundef %7, i64 noundef %8, ptr noundef %5)
  %10 = load ptr, ptr %5, align 8, !tbaa !32
  call void @llvm.lifetime.end.p0(i64 8, ptr %5) #14
  ret ptr %10
}

; Function Attrs: inlinehint nounwind uwtable
define internal i64 @sdslen(ptr noundef %0) #11 {
  %2 = alloca i64, align 8
  %3 = alloca ptr, align 8
  %4 = alloca i8, align 1
  %5 = alloca i32, align 4
  store ptr %0, ptr %3, align 8, !tbaa !5
  call void @llvm.lifetime.start.p0(i64 1, ptr %4) #14
  %6 = load ptr, ptr %3, align 8, !tbaa !5
  %7 = getelementptr inbounds i8, ptr %6, i64 -1
  %8 = load i8, ptr %7, align 1, !tbaa !22
  store i8 %8, ptr %4, align 1, !tbaa !22
  %9 = load i8, ptr %4, align 1, !tbaa !22
  %10 = zext i8 %9 to i32
  %11 = and i32 %10, 7
  switch i32 %11, label %40 [
    i32 0, label %12
    i32 1, label %17
    i32 2, label %23
    i32 3, label %29
    i32 4, label %35
  ]

12:                                               ; preds = %1
  %13 = load i8, ptr %4, align 1, !tbaa !22
  %14 = zext i8 %13 to i32
  %15 = ashr i32 %14, 3
  %16 = sext i32 %15 to i64
  store i64 %16, ptr %2, align 8
  store i32 1, ptr %5, align 4
  br label %41

17:                                               ; preds = %1
  %18 = load ptr, ptr %3, align 8, !tbaa !5
  %19 = getelementptr inbounds i8, ptr %18, i64 -3
  %20 = getelementptr inbounds nuw %struct.sdshdr8, ptr %19, i32 0, i32 0
  %21 = load i8, ptr %20, align 1, !tbaa !22
  %22 = zext i8 %21 to i64
  store i64 %22, ptr %2, align 8
  store i32 1, ptr %5, align 4
  br label %41

23:                                               ; preds = %1
  %24 = load ptr, ptr %3, align 8, !tbaa !5
  %25 = getelementptr inbounds i8, ptr %24, i64 -5
  %26 = getelementptr inbounds nuw %struct.sdshdr16, ptr %25, i32 0, i32 0
  %27 = load i16, ptr %26, align 1, !tbaa !28
  %28 = zext i16 %27 to i64
  store i64 %28, ptr %2, align 8
  store i32 1, ptr %5, align 4
  br label %41

29:                                               ; preds = %1
  %30 = load ptr, ptr %3, align 8, !tbaa !5
  %31 = getelementptr inbounds i8, ptr %30, i64 -9
  %32 = getelementptr inbounds nuw %struct.sdshdr32, ptr %31, i32 0, i32 0
  %33 = load i32, ptr %32, align 1, !tbaa !17
  %34 = zext i32 %33 to i64
  store i64 %34, ptr %2, align 8
  store i32 1, ptr %5, align 4
  br label %41

35:                                               ; preds = %1
  %36 = load ptr, ptr %3, align 8, !tbaa !5
  %37 = getelementptr inbounds i8, ptr %36, i64 -17
  %38 = getelementptr inbounds nuw %struct.sdshdr64, ptr %37, i32 0, i32 0
  %39 = load i64, ptr %38, align 1, !tbaa !10
  store i64 %39, ptr %2, align 8
  store i32 1, ptr %5, align 4
  br label %41

40:                                               ; preds = %1
  store i64 0, ptr %2, align 8
  store i32 1, ptr %5, align 4
  br label %41

41:                                               ; preds = %40, %35, %29, %23, %17, %12
  call void @llvm.lifetime.end.p0(i64 1, ptr %4) #14
  %42 = load i64, ptr %2, align 8
  ret i64 %42
}

; Function Attrs: nounwind uwtable
define dso_local i32 @ACLCheckUserCredentials(ptr noundef %0, ptr noundef %1) #0 {
  %3 = alloca i32, align 4
  %4 = alloca ptr, align 8
  %5 = alloca ptr, align 8
  %6 = alloca ptr, align 8
  %7 = alloca i32, align 4
  %8 = alloca %struct.listIter, align 8
  %9 = alloca ptr, align 8
  %10 = alloca ptr, align 8
  %11 = alloca ptr, align 8
  store ptr %0, ptr %4, align 8, !tbaa !151
  store ptr %1, ptr %5, align 8, !tbaa !151
  call void @llvm.lifetime.start.p0(i64 8, ptr %6) #14
  %12 = load ptr, ptr %4, align 8, !tbaa !151
  %13 = getelementptr inbounds nuw %struct.redisObject, ptr %12, i32 0, i32 2
  %14 = load ptr, ptr %13, align 8, !tbaa !152
  %15 = load ptr, ptr %4, align 8, !tbaa !151
  %16 = getelementptr inbounds nuw %struct.redisObject, ptr %15, i32 0, i32 2
  %17 = load ptr, ptr %16, align 8, !tbaa !152
  %18 = call i64 @sdslen(ptr noundef %17)
  %19 = call ptr @ACLGetUserByName(ptr noundef %14, i64 noundef %18)
  store ptr %19, ptr %6, align 8, !tbaa !32
  %20 = load ptr, ptr %6, align 8, !tbaa !32
  %21 = icmp eq ptr %20, null
  br i1 %21, label %22, label %24

22:                                               ; preds = %2
  %23 = call ptr @__errno_location() #16
  store i32 2, ptr %23, align 4, !tbaa !17
  store i32 -1, ptr %3, align 4
  store i32 1, ptr %7, align 4
  br label %72

24:                                               ; preds = %2
  %25 = load ptr, ptr %6, align 8, !tbaa !32
  %26 = getelementptr inbounds nuw %struct.user, ptr %25, i32 0, i32 1
  %27 = load i32, ptr %26, align 8, !tbaa !90
  %28 = and i32 %27, 2
  %29 = icmp ne i32 %28, 0
  br i1 %29, label %30, label %32

30:                                               ; preds = %24
  %31 = call ptr @__errno_location() #16
  store i32 22, ptr %31, align 4, !tbaa !17
  store i32 -1, ptr %3, align 4
  store i32 1, ptr %7, align 4
  br label %72

32:                                               ; preds = %24
  %33 = load ptr, ptr %6, align 8, !tbaa !32
  %34 = getelementptr inbounds nuw %struct.user, ptr %33, i32 0, i32 1
  %35 = load i32, ptr %34, align 8, !tbaa !90
  %36 = and i32 %35, 4
  %37 = icmp ne i32 %36, 0
  br i1 %37, label %38, label %39

38:                                               ; preds = %32
  store i32 0, ptr %3, align 4
  store i32 1, ptr %7, align 4
  br label %72

39:                                               ; preds = %32
  call void @llvm.lifetime.start.p0(i64 16, ptr %8) #14
  call void @llvm.lifetime.start.p0(i64 8, ptr %9) #14
  %40 = load ptr, ptr %6, align 8, !tbaa !32
  %41 = getelementptr inbounds nuw %struct.user, ptr %40, i32 0, i32 2
  %42 = load ptr, ptr %41, align 8, !tbaa !91
  call void @listRewind(ptr noundef %42, ptr noundef %8)
  call void @llvm.lifetime.start.p0(i64 8, ptr %10) #14
  %43 = load ptr, ptr %5, align 8, !tbaa !151
  %44 = getelementptr inbounds nuw %struct.redisObject, ptr %43, i32 0, i32 2
  %45 = load ptr, ptr %44, align 8, !tbaa !152
  %46 = load ptr, ptr %5, align 8, !tbaa !151
  %47 = getelementptr inbounds nuw %struct.redisObject, ptr %46, i32 0, i32 2
  %48 = load ptr, ptr %47, align 8, !tbaa !152
  %49 = call i64 @sdslen(ptr noundef %48)
  %50 = call ptr @ACLHashPassword(ptr noundef %45, i64 noundef %49)
  store ptr %50, ptr %10, align 8, !tbaa !5
  br label %51

51:                                               ; preds = %67, %39
  %52 = call ptr @listNext(ptr noundef %8)
  store ptr %52, ptr %9, align 8, !tbaa !94
  %53 = icmp ne ptr %52, null
  br i1 %53, label %54, label %68

54:                                               ; preds = %51
  call void @llvm.lifetime.start.p0(i64 8, ptr %11) #14
  %55 = load ptr, ptr %9, align 8, !tbaa !94
  %56 = getelementptr inbounds nuw %struct.listNode, ptr %55, i32 0, i32 2
  %57 = load ptr, ptr %56, align 8, !tbaa !86
  store ptr %57, ptr %11, align 8, !tbaa !5
  %58 = load ptr, ptr %10, align 8, !tbaa !5
  %59 = load ptr, ptr %11, align 8, !tbaa !5
  %60 = call i32 @time_independent_strcmp(ptr noundef %58, ptr noundef %59, i32 noundef 64)
  %61 = icmp ne i32 %60, 0
  br i1 %61, label %64, label %62

62:                                               ; preds = %54
  %63 = load ptr, ptr %10, align 8, !tbaa !5
  call void @sdsfree(ptr noundef %63)
  store i32 0, ptr %3, align 4
  store i32 1, ptr %7, align 4
  br label %65

64:                                               ; preds = %54
  store i32 0, ptr %7, align 4
  br label %65

65:                                               ; preds = %64, %62
  call void @llvm.lifetime.end.p0(i64 8, ptr %11) #14
  %66 = load i32, ptr %7, align 4
  switch i32 %66, label %71 [
    i32 0, label %67
  ]

67:                                               ; preds = %65
  br label %51, !llvm.loop !154

68:                                               ; preds = %51
  %69 = load ptr, ptr %10, align 8, !tbaa !5
  call void @sdsfree(ptr noundef %69)
  %70 = call ptr @__errno_location() #16
  store i32 22, ptr %70, align 4, !tbaa !17
  store i32 -1, ptr %3, align 4
  store i32 1, ptr %7, align 4
  br label %71

71:                                               ; preds = %68, %65
  call void @llvm.lifetime.end.p0(i64 8, ptr %10) #14
  call void @llvm.lifetime.end.p0(i64 8, ptr %9) #14
  call void @llvm.lifetime.end.p0(i64 16, ptr %8) #14
  br label %72

72:                                               ; preds = %71, %38, %30, %22
  call void @llvm.lifetime.end.p0(i64 8, ptr %6) #14
  %73 = load i32, ptr %3, align 4
  ret i32 %73
}