; Function Attrs: nounwind uwtable
define dso_local range(i32 -1, 1) i32 @ACLCheckUserCredentials(ptr noundef readonly captures(none) %0, ptr noundef readonly captures(none) %1) local_unnamed_addr #0 {
  %3 = alloca %struct.SHA256_CTX, align 8
  %4 = alloca [32 x i8], align 16
  %5 = alloca [64 x i8], align 16
  %6 = alloca ptr, align 8
  %7 = alloca %struct.listIter, align 8
  %8 = getelementptr inbounds nuw i8, ptr %0, i64 8
  %9 = load ptr, ptr %8, align 8, !tbaa !144
  %10 = getelementptr inbounds i8, ptr %9, i64 -1
  %11 = load i8, ptr %10, align 1, !tbaa !19
  %12 = zext i8 %11 to i32
  %13 = and i32 %12, 7
  switch i32 %13, label %sdslen.exit [
    i32 0, label %14
    i32 1, label %17
    i32 2, label %21
    i32 3, label %25
    i32 4, label %29
  ]

14:                                               ; preds = %2
  %15 = lshr i32 %12, 3
  %16 = zext nneg i32 %15 to i64
  br label %sdslen.exit

17:                                               ; preds = %2
  %18 = getelementptr inbounds i8, ptr %9, i64 -3
  %19 = load i8, ptr %18, align 1, !tbaa !19
  %20 = zext i8 %19 to i64
  br label %sdslen.exit

21:                                               ; preds = %2
  %22 = getelementptr inbounds i8, ptr %9, i64 -5
  %23 = load i16, ptr %22, align 1, !tbaa !26
  %24 = zext i16 %23 to i64
  br label %sdslen.exit

25:                                               ; preds = %2
  %26 = getelementptr inbounds i8, ptr %9, i64 -9
  %27 = load i32, ptr %26, align 1, !tbaa !102
  %28 = zext i32 %27 to i64
  br label %sdslen.exit

29:                                               ; preds = %2
  %30 = getelementptr inbounds i8, ptr %9, i64 -17
  %31 = load i64, ptr %30, align 1, !tbaa !5
  br label %sdslen.exit

sdslen.exit:                                      ; preds = %2, %14, %17, %21, %25, %29
  %.0.i = phi i64 [ %31, %29 ], [ %28, %25 ], [ %24, %21 ], [ %20, %17 ], [ %16, %14 ], [ 0, %2 ]
  call void @llvm.lifetime.start.p0(i64 8, ptr nonnull %6) #25
  store ptr null, ptr %6, align 8, !tbaa !143
  %32 = load ptr, ptr @Users, align 8, !tbaa !87
  %33 = call i32 @raxFind(ptr noundef %32, ptr noundef nonnull %9, i64 noundef %.0.i, ptr noundef nonnull %6) #25
  %34 = load ptr, ptr %6, align 8, !tbaa !143
  call void @llvm.lifetime.end.p0(i64 8, ptr nonnull %6) #25
  %35 = icmp eq ptr %34, null
  br i1 %35, label %36, label %38

36:                                               ; preds = %sdslen.exit
  %37 = tail call ptr @__errno_location() #28
  store i32 2, ptr %37, align 4, !tbaa !102
  br label %104

38:                                               ; preds = %sdslen.exit
  %39 = getelementptr inbounds nuw i8, ptr %34, i64 8
  %40 = load i32, ptr %39, align 8, !tbaa !89
  %41 = and i32 %40, 2
  %.not = icmp eq i32 %41, 0
  br i1 %.not, label %44, label %42

42:                                               ; preds = %38
  %43 = tail call ptr @__errno_location() #28
  store i32 22, ptr %43, align 4, !tbaa !102
  br label %104

44:                                               ; preds = %38
  %45 = and i32 %40, 4
  %.not17 = icmp eq i32 %45, 0
  br i1 %.not17, label %46, label %104

46:                                               ; preds = %44
  call void @llvm.lifetime.start.p0(i64 16, ptr nonnull %7) #25
  %47 = getelementptr inbounds nuw i8, ptr %34, i64 16
  %48 = load ptr, ptr %47, align 8, !tbaa !90
  call void @listRewind(ptr noundef %48, ptr noundef nonnull %7) #25
  %49 = getelementptr inbounds nuw i8, ptr %1, i64 8
  %50 = load ptr, ptr %49, align 8, !tbaa !144
  %51 = getelementptr inbounds i8, ptr %50, i64 -1
  %52 = load i8, ptr %51, align 1, !tbaa !19
  %53 = zext i8 %52 to i32
  %54 = and i32 %53, 7
  switch i32 %54, label %sdslen.exit21 [
    i32 0, label %55
    i32 1, label %58
    i32 2, label %62
    i32 3, label %66
    i32 4, label %70
  ]

55:                                               ; preds = %46
  %56 = lshr i32 %53, 3
  %57 = zext nneg i32 %56 to i64
  br label %sdslen.exit21

58:                                               ; preds = %46
  %59 = getelementptr inbounds i8, ptr %50, i64 -3
  %60 = load i8, ptr %59, align 1, !tbaa !19
  %61 = zext i8 %60 to i64
  br label %sdslen.exit21

62:                                               ; preds = %46
  %63 = getelementptr inbounds i8, ptr %50, i64 -5
  %64 = load i16, ptr %63, align 1, !tbaa !26
  %65 = zext i16 %64 to i64
  br label %sdslen.exit21

66:                                               ; preds = %46
  %67 = getelementptr inbounds i8, ptr %50, i64 -9
  %68 = load i32, ptr %67, align 1, !tbaa !102
  %69 = zext i32 %68 to i64
  br label %sdslen.exit21

70:                                               ; preds = %46
  %71 = getelementptr inbounds i8, ptr %50, i64 -17
  %72 = load i64, ptr %71, align 1, !tbaa !5
  br label %sdslen.exit21

sdslen.exit21:                                    ; preds = %46, %55, %58, %62, %66, %70
  %.0.i20 = phi i64 [ %72, %70 ], [ %69, %66 ], [ %65, %62 ], [ %61, %58 ], [ %57, %55 ], [ 0, %46 ]
  call void @llvm.lifetime.start.p0(i64 112, ptr nonnull %3) #25
  call void @llvm.lifetime.start.p0(i64 32, ptr nonnull %4) #25
  call void @llvm.lifetime.start.p0(i64 64, ptr nonnull %5) #25
  call void @sha256_init(ptr noundef nonnull %3) #25
  call void @sha256_update(ptr noundef nonnull %3, ptr noundef nonnull %50, i64 noundef %.0.i20) #25
  call void @sha256_final(ptr noundef nonnull %3, ptr noundef nonnull %4) #25
  br label %73

73:                                               ; preds = %73, %sdslen.exit21
  %indvars.iv.i = phi i64 [ 0, %sdslen.exit21 ], [ %indvars.iv.next.i, %73 ]
  %74 = getelementptr inbounds nuw [32 x i8], ptr %4, i64 0, i64 %indvars.iv.i
  %75 = load i8, ptr %74, align 1, !tbaa !19
  %76 = lshr i8 %75, 4
  %77 = zext nneg i8 %76 to i64
  %78 = getelementptr inbounds nuw i8, ptr @.str.31, i64 %77
  %79 = load i8, ptr %78, align 1, !tbaa !19
  %80 = shl nuw nsw i64 %indvars.iv.i, 1
  %81 = getelementptr inbounds nuw [64 x i8], ptr %5, i64 0, i64 %80
  store i8 %79, ptr %81, align 2, !tbaa !19
  %82 = and i8 %75, 15
  %83 = zext nneg i8 %82 to i64
  %84 = getelementptr inbounds nuw i8, ptr @.str.31, i64 %83
  %85 = load i8, ptr %84, align 1, !tbaa !19
  %86 = or disjoint i64 %80, 1
  %87 = getelementptr inbounds nuw [64 x i8], ptr %5, i64 0, i64 %86
  store i8 %85, ptr %87, align 1, !tbaa !19
  %indvars.iv.next.i = add nuw nsw i64 %indvars.iv.i, 1
  %exitcond.not.i = icmp eq i64 %indvars.iv.next.i, 32
  br i1 %exitcond.not.i, label %ACLHashPassword.exit, label %73, !llvm.loop !21

ACLHashPassword.exit:                             ; preds = %73
  %88 = call ptr @sdsnewlen(ptr noundef nonnull %5, i64 noundef 64) #25
  call void @llvm.lifetime.end.p0(i64 64, ptr nonnull %5) #25
  call void @llvm.lifetime.end.p0(i64 32, ptr nonnull %4) #25
  call void @llvm.lifetime.end.p0(i64 112, ptr nonnull %3) #25
  br label %.critedge

.critedge:                                        ; preds = %time_independent_strcmp.exit, %ACLHashPassword.exit
  %89 = call ptr @listNext(ptr noundef nonnull %7) #25
  %.not18 = icmp eq ptr %89, null
  br i1 %.not18, label %101, label %90

90:                                               ; preds = %.critedge
  %91 = getelementptr inbounds nuw i8, ptr %89, i64 16
  %92 = load ptr, ptr %91, align 8, !tbaa !85
  br label %.lr.ph.i

.lr.ph.i:                                         ; preds = %.lr.ph.i, %90
  %indvars.iv.i22 = phi i64 [ 0, %90 ], [ %indvars.iv.next.i23, %.lr.ph.i ]
  %.089.i = phi i32 [ 0, %90 ], [ %99, %.lr.ph.i ]
  %93 = getelementptr inbounds nuw i8, ptr %88, i64 %indvars.iv.i22
  %94 = load i8, ptr %93, align 1, !tbaa !19
  %95 = getelementptr inbounds nuw i8, ptr %92, i64 %indvars.iv.i22
  %96 = load i8, ptr %95, align 1, !tbaa !19
  %97 = xor i8 %96, %94
  %98 = sext i8 %97 to i32
  %99 = or i32 %.089.i, %98
  %indvars.iv.next.i23 = add nuw nsw i64 %indvars.iv.i22, 1
  %exitcond.not.i24 = icmp eq i64 %indvars.iv.next.i23, 64
  br i1 %exitcond.not.i24, label %time_independent_strcmp.exit, label %.lr.ph.i, !llvm.loop !20

time_independent_strcmp.exit:                     ; preds = %.lr.ph.i
  %.not19.not = icmp eq i32 %99, 0
  br i1 %.not19.not, label %100, label %.critedge

100:                                              ; preds = %time_independent_strcmp.exit
  call void @sdsfree(ptr noundef nonnull %88) #25
  br label %103, !llvm.loop !146

101:                                              ; preds = %.critedge
  call void @sdsfree(ptr noundef %88) #25
  %102 = tail call ptr @__errno_location() #28
  store i32 22, ptr %102, align 4, !tbaa !102
  br label %103

103:                                              ; preds = %100, %101
  %.3 = phi i32 [ 0, %100 ], [ -1, %101 ]
  call void @llvm.lifetime.end.p0(i64 16, ptr nonnull %7) #25
  br label %104

104:                                              ; preds = %44, %103, %42, %36
  %.0 = phi i32 [ -1, %36 ], [ -1, %42 ], [ %.3, %103 ], [ 0, %44 ]
  ret i32 %.0
}